; Function Attrs: mustprogress nounwind uwtable
define dso_local void @_ZN4llvm3pdb21NativeEnumLineNumbers7getNextEv(ptr dead_on_unwind noalias writable sret(%"class.std::unique_ptr") align 8 %0, ptr noundef nonnull align 8 dereferenceable(36) %1) unnamed_addr #2 align 2 {
  %3 = getelementptr inbounds nuw i8, ptr %1, i64 32
  %4 = load i32, ptr %3, align 8
  %5 = add i32 %4, 1
  store i32 %5, ptr %3, align 8
  %6 = load ptr, ptr %1, align 8
  %7 = getelementptr inbounds nuw i8, ptr %6, i64 24
  %8 = load ptr, ptr %7, align 8
  tail call void %8(ptr dead_on_unwind writable sret(%"class.std::unique_ptr") align 8 %0, ptr noundef nonnull align 8 dereferenceable(36) %1, i32 noundef %4) #8
  ret void
}